target datalayout = "e-m:e-p270:32:32-p271:32:32-p272:64:64-i64:64-i128:128-f80:128-n8:16:32:64-S128"
target triple = "x86_64-pc-linux-gnu"

%struct.slurm_cred_t = type { i32, %union.pthread_rwlock_t, ptr, i32, i16, ptr, i64, ptr, i8 }
%union.pthread_rwlock_t = type { %struct.__pthread_rwlock_arch_t }
%struct.__pthread_rwlock_arch_t = type { i32, i32, i32, i32, i32, i32, i32, i32, i8, [7 x i8], i64, i32 }

@.str.17 = private unnamed_addr constant [32 x i8] c"%s: pthread_rwlock_unlock(): %m\00", align 1
@__func__.slurm_cred_unlock_args = private unnamed_addr constant [23 x i8] c"slurm_cred_unlock_args\00", align 1

; Function Attrs: nounwind uwtable
define dso_local void @slurm_cred_unlock_args(ptr noundef %0) #0 {
  %2 = alloca ptr, align 8
  %3 = alloca i32, align 4
  store ptr %0, ptr %2, align 8
  br label %4

4:                                                ; preds = %1
  call void @llvm.lifetime.start.p0(i64 4, ptr %3) #9
  %5 = load ptr, ptr %2, align 8
  %6 = getelementptr inbounds nuw %struct.slurm_cred_t, ptr %5, i32 0, i32 1
  %7 = call i32 @pthread_rwlock_unlock(ptr noundef %6) #9
  store i32 %7, ptr %3, align 4
  %8 = load i32, ptr %3, align 4
  %9 = icmp ne i32 %8, 0
  br i1 %9, label %10, label %13

10:                                               ; preds = %4
  %11 = load i32, ptr %3, align 4
  %12 = call ptr @__errno_location() #11
  store i32 %11, ptr %12, align 4
  call void (ptr, ...) @fatal_abort(ptr noundef @.str.17, ptr noundef @__func__.slurm_cred_unlock_args) #12
  unreachable

13:                                               ; preds = %4
  call void @llvm.lifetime.end.p0(i64 4, ptr %3) #9
  br label %14

14:                                               ; preds = %13
  ret void
}