; Function Attrs: nounwind uwtable
define dso_local void @slurm_cred_unlock_args(ptr noundef %0) local_unnamed_addr #0 {
  %2 = getelementptr inbounds nuw i8, ptr %0, i64 8
  %3 = tail call i32 @pthread_rwlock_unlock(ptr noundef nonnull %2) #11
  %.not = icmp eq i32 %3, 0
  br i1 %.not, label %6, label %4

4:                                                ; preds = %1
  %5 = tail call ptr @__errno_location() #12
  store i32 %3, ptr %5, align 4
  tail call void (ptr, ...) @fatal_abort(ptr noundef nonnull @.str.17, ptr noundef nonnull @__func__.slurm_cred_unlock_args) #13
  unreachable

6:                                                ; preds = %1
  ret void
}